(lp0
(lp1
I20
aI7
aI10
aI3
aI2
aI8
aI48
aI105
aI150
aI148
aI106
aI104
aI94
aI89
aI99
aI104
aI109
aI112
aI126
aI91
aI82
aI63
aI48
aI38
aa(lp2
I17
aI9
aI3
aI2
aI6
aI9
aI57
aI122
aI118
aI159
aI129
aI91
aI82
aI80
aI81
aI93
aI96
aI119
aI117
aI131
aI80
aI60
aI48
aI35
aa(lp3
I27
aI12
aI5
aI8
aI3
aI13
aI55
aI109
aI134
aI153
aI109
aI100
aI90
aI94
aI101
aI101
aI107
aI106
aI127
aI117
aI82
aI65
aI69
aI33
aa(lp4
I19
aI20
aI4
aI2
aI2
aI9
aI38
aI120
aI157
aI137
aI102
aI95
aI102
aI76
aI98
aI111
aI98
aI94
aI172
aI136
aI104
aI81
aI69
aI42
aa(lp5
I33
aI17
aI6
aI9
aI4
aI10
aI47
aI100
aI123
aI131
aI149
aI125
aI118
aI105
aI108
aI83
aI108
aI111
aI181
aI122
aI102
aI99
aI70
aI55
aa(lp6
I56
aI33
aI17
aI9
aI8
aI6
aI13
aI28
aI53
aI73
aI106
aI94
aI103
aI97
aI115
aI143
aI140
aI120
aI163
aI114
aI135
aI103
aI106
aI76
aa(lp7
I81
aI42
aI15
aI21
aI5
aI6
aI12
aI23
aI25
aI48
aI60
aI75
aI98
aI86
aI141
aI121
aI155
aI173
aI154
aI122
aI125
aI111
aI83
aI51
aa(lp8
I30
aI10
aI4
aI3
aI3
aI12
aI47
aI110
aI144
aI142
aI106
aI108
aI98
aI71
aI90
aI101
aI114
aI104
aI117
aI107
aI78
aI67
aI49
aI28
aa(lp9
I27
aI11
aI5
aI3
aI6
aI12
aI45
aI130
aI134
aI124
aI118
aI86
aI61
aI72
aI90
aI103
aI91
aI119
aI122
aI98
aI60
aI80
aI47
aI28
aa(lp10
I19
aI10
aI5
aI3
aI5
aI7
aI54
aI100
aI154
aI138
aI107
aI90
aI94
aI88
aI92
aI91
aI93
aI112
aI125
aI122
aI84
aI78
aI49
aI32
aa(lp11
I24
aI6
aI10
aI4
aI5
aI11
aI52
aI129
aI129
aI122
aI106
aI99
aI92
aI83
aI73
aI103
aI89
aI109
aI140
aI122
aI77
aI65
aI60
aI48
aa(lp12
I31
aI12
aI3
aI6
aI2
aI16
aI55
aI109
aI143
aI128
aI96
aI117
aI85
aI67
aI88
aI122
aI126
aI127
aI155
aI139
aI99
aI109
aI97
aI70
aa(lp13
I73
aI32
aI15
aI18
aI11
aI7
aI26
aI45
aI75
aI86
aI96
aI105
aI117
aI120
aI131
aI125
aI160
aI148
aI138
aI134
aI103
aI92
aI105
aI68
aa(lp14
I67
aI34
aI17
aI9
aI5
aI3
aI20
aI30
aI21
aI61
aI78
aI94
aI103
aI101
aI135
aI138
aI165
aI166
aI184
aI174
aI178
aI168
aI93
aI86
aa(lp15
I39
aI9
aI6
aI2
aI6
aI12
aI56
aI83
aI120
aI154
aI101
aI80
aI92
aI75
aI89
aI87
aI99
aI118
aI127
aI104
aI93
aI55
aI60
aI23
aa(lp16
I21
aI10
aI7
aI1
aI3
aI13
aI43
aI106
aI127
aI138
aI103
aI78
aI86
aI68
aI94
aI83
aI96
aI97
aI106
aI101
aI56
aI66
aI56
aI34
aa(lp17
I21
aI6
aI4
aI3
aI2
aI14
aI65
aI127
aI151
aI119
aI104
aI81
aI108
aI85
aI80
aI67
aI86
aI105
aI125
aI102
aI94
aI78
aI56
aI34
aa(lp18
I26
aI19
aI8
aI4
aI4
aI13
aI61
aI109
aI119
aI124
aI99
aI87
aI89
aI75
aI95
aI69
aI59
aI68
aI99
aI116
aI101
aI63
aI53
aI49
aa(lp19
I36
aI20
aI12
aI7
aI5
aI11
aI53
aI98
aI125
aI109
aI126
aI84
aI84
aI74
aI84
aI91
aI95
aI84
aI147
aI157
aI114
aI103
aI83
aI78
aa(lp20
I74
aI46
aI28
aI20
aI7
aI15
aI24
aI38
aI53
aI80
aI95
aI111
aI106
aI104
aI100
aI115
aI143
aI107
aI120
aI122
aI124
aI119
aI105
aI123
aa(lp21
I81
aI42
aI24
aI9
aI12
aI7
aI15
aI12
aI30
aI52
aI70
aI77
aI89
aI108
aI109
aI106
aI126
aI125
aI125
aI125
aI122
aI132
aI98
aI78
aa(lp22
I38
aI14
aI3
aI8
aI6
aI15
aI57
aI98
aI135
aI144
aI111
aI107
aI98
aI90
aI90
aI94
aI89
aI124
aI148
aI109
aI52
aI48
aI52
aI28
aa(lp23
I18
aI11
aI5
aI3
aI3
aI14
aI59
aI118
aI130
aI120
aI105
aI75
aI84
aI79
aI100
aI90
aI95
aI106
aI125
aI114
aI73
aI60
aI73
aI27
aa(lp24
I28
aI14
aI10
aI2
aI3
aI11
aI49
aI105
aI152
aI115
aI114
aI121
aI76
aI71
aI86
aI78
aI119
aI126
aI123
aI118
aI72
aI61
aI74
aI32
aa(lp25
I24
aI10
aI10
aI5
aI6
aI15
aI48
aI87
aI128
aI148
aI124
aI109
aI100
aI87
aI93
aI83
aI105
aI100
aI116
aI96
aI100
aI87
aI66
aI32
aa(lp26
I27
aI17
aI13
aI8
aI6
aI9
aI43
aI107
aI125
aI122
aI91
aI76
aI79
aI71
aI96
aI93
aI104
aI106
aI120
aI121
aI98
aI71
aI58
aI49
aa(lp27
I45
aI33
aI18
aI9
aI7
aI7
aI16
aI28
aI49
aI58
aI89
aI87
aI93
aI79
aI92
aI101
aI117
aI103
aI132
aI115
aI72
aI74
aI89
aI93
aa(lp28
I43
aI45
aI12
aI11
aI10
aI6
aI18
aI16
aI27
aI43
aI56
aI78
aI102
aI85
aI108
aI126
aI126
aI115
aI133
aI106
aI74
aI108
aI69
aI74
aa(lp29
I41
aI25
aI14
aI3
aI5
aI7
aI24
aI31
aI27
aI30
aI53
aI90
aI119
aI132
aI145
aI173
aI207
aI214
aI195
aI171
aI84
aI123
aI71
aI49
aa(lp30
I29
aI10
aI5
aI4
aI3
aI17
aI57
aI123
aI168
aI146
aI123
aI77
aI81
aI77
aI96
aI113
aI98
aI101
aI120
aI118
aI63
aI43
aI48
aI26
aa(lp31
I20
aI6
aI3
aI2
aI5
aI12
aI51
aI96
aI127
aI159
aI106
aI70
aI71
aI77
aI84
aI111
aI99
aI126
aI146
aI109
aI65
aI57
aI55
aI39
aa.